target datalayout = "e-m:e-p270:32:32-p271:32:32-p272:64:64-i64:64-i128:128-f80:128-n8:16:32:64-S128"
target triple = "x86_64-pc-linux-gnu"

%struct.gmx_pme_t = type { i32, i32, i32, i32, i32, i32, i32, ptr, [2 x ptr], ptr, i8, i32, i8, i8, i8, i8, i8, i8, i32, i32, i32, i8, i32, float, float, float, i32, float, i32, ptr, %"class.std::unique_ptr.61", i32, i32, i32, i32, i32, i32, i32, i32, %"class.std::unique_ptr.69", %"class.std::shared_ptr", %"class.std::vector.77", %"class.std::vector.77", %"class.std::vector.82", %"class.std::vector.87", %"class.std::vector.92", %"class.std::vector.92", %"class.std::vector.92", %"class.std::vector.97", %"class.std::vector.97", %"class.std::vector.97", %"class.std::vector.102", [3 x [3 x float]], float, %"struct.std::array", %"class.std::vector.107", %"class.std::vector.107", %"struct.std::array.109", %"class.std::unique_ptr.115", %"class.std::vector.123", %"class.std::vector.97", %"class.std::unique_ptr.128" }
%"class.std::unique_ptr.61" = type { %"struct.std::__uniq_ptr_data.62" }
%"struct.std::__uniq_ptr_data.62" = type { %"class.std::__uniq_ptr_impl.63" }
%"class.std::__uniq_ptr_impl.63" = type { %"class.std::tuple.64" }
%"class.std::tuple.64" = type { %"struct.std::_Tuple_impl.65" }
%"struct.std::_Tuple_impl.65" = type { %"struct.std::_Head_base.68" }
%"struct.std::_Head_base.68" = type { ptr }
%"class.std::unique_ptr.69" = type { %"struct.std::__uniq_ptr_data.70" }
%"struct.std::__uniq_ptr_data.70" = type { %"class.std::__uniq_ptr_impl.71" }
%"class.std::__uniq_ptr_impl.71" = type { %"class.std::tuple.72" }
%"class.std::tuple.72" = type { %"struct.std::_Tuple_impl.73" }
%"struct.std::_Tuple_impl.73" = type { %"struct.std::_Head_base.76" }
%"struct.std::_Head_base.76" = type { ptr }
%"class.std::shared_ptr" = type { %"class.std::__shared_ptr" }
%"class.std::__shared_ptr" = type { ptr, %"class.std::__shared_count" }
%"class.std::__shared_count" = type { ptr }
%"class.std::vector.77" = type { %"struct.std::_Vector_base.78" }
%"struct.std::_Vector_base.78" = type { %"struct.std::_Vector_base<PmeAndFftGrids, std::allocator<PmeAndFftGrids>>::_Vector_impl" }
%"struct.std::_Vector_base<PmeAndFftGrids, std::allocator<PmeAndFftGrids>>::_Vector_impl" = type { %"struct.std::_Vector_base<PmeAndFftGrids, std::allocator<PmeAndFftGrids>>::_Vector_impl_data" }
%"struct.std::_Vector_base<PmeAndFftGrids, std::allocator<PmeAndFftGrids>>::_Vector_impl_data" = type { ptr, ptr, ptr }
%"class.std::vector.82" = type { %"struct.std::_Vector_base.83" }
%"struct.std::_Vector_base.83" = type { %"struct.std::_Vector_base<gmx_pme_t::GridsRef, std::allocator<gmx_pme_t::GridsRef>>::_Vector_impl" }
%"struct.std::_Vector_base<gmx_pme_t::GridsRef, std::allocator<gmx_pme_t::GridsRef>>::_Vector_impl" = type { %"struct.std::_Vector_base<gmx_pme_t::GridsRef, std::allocator<gmx_pme_t::GridsRef>>::_Vector_impl_data" }
%"struct.std::_Vector_base<gmx_pme_t::GridsRef, std::allocator<gmx_pme_t::GridsRef>>::_Vector_impl_data" = type { ptr, ptr, ptr }
%"class.std::vector.87" = type { %"struct.std::_Vector_base.88" }
%"struct.std::_Vector_base.88" = type { %"struct.std::_Vector_base<t_complex *, std::allocator<t_complex *>>::_Vector_impl" }
%"struct.std::_Vector_base<t_complex *, std::allocator<t_complex *>>::_Vector_impl" = type { %"struct.std::_Vector_base<t_complex *, std::allocator<t_complex *>>::_Vector_impl_data" }
%"struct.std::_Vector_base<t_complex *, std::allocator<t_complex *>>::_Vector_impl_data" = type { ptr, ptr, ptr }
%"class.std::vector.92" = type { %"struct.std::_Vector_base.93" }
%"struct.std::_Vector_base.93" = type { %"struct.std::_Vector_base<int, std::allocator<int>>::_Vector_impl" }
%"struct.std::_Vector_base<int, std::allocator<int>>::_Vector_impl" = type { %"struct.std::_Vector_base<int, std::allocator<int>>::_Vector_impl_data" }
%"struct.std::_Vector_base<int, std::allocator<int>>::_Vector_impl_data" = type { ptr, ptr, ptr }
%"class.std::vector.102" = type { %"struct.std::_Vector_base.103" }
%"struct.std::_Vector_base.103" = type { %"struct.std::_Vector_base<PmeAtomComm, std::allocator<PmeAtomComm>>::_Vector_impl" }
%"struct.std::_Vector_base<PmeAtomComm, std::allocator<PmeAtomComm>>::_Vector_impl" = type { %"struct.std::_Vector_base<PmeAtomComm, std::allocator<PmeAtomComm>>::_Vector_impl_data" }
%"struct.std::_Vector_base<PmeAtomComm, std::allocator<PmeAtomComm>>::_Vector_impl_data" = type { ptr, ptr, ptr }
%"struct.std::array" = type { [3 x %"class.std::vector.97"] }
%"class.std::vector.107" = type { %"struct.std::_Vector_base.108" }
%"struct.std::_Vector_base.108" = type { %"struct.std::_Vector_base<float, gmx::DefaultInitializationAllocator<float>>::_Vector_impl" }
%"struct.std::_Vector_base<float, gmx::DefaultInitializationAllocator<float>>::_Vector_impl" = type { %"struct.std::_Vector_base<float, gmx::DefaultInitializationAllocator<float>>::_Vector_impl_data" }
%"struct.std::_Vector_base<float, gmx::DefaultInitializationAllocator<float>>::_Vector_impl_data" = type { ptr, ptr, ptr }
%"struct.std::array.109" = type { [2 x %struct.pme_overlap_t] }
%struct.pme_overlap_t = type { ptr, i32, i32, %"class.std::vector.92", %"class.std::vector.92", i32, %"class.std::vector.110", %"class.std::vector.97", %"class.std::vector.97" }
%"class.std::vector.110" = type { %"struct.std::_Vector_base.111" }
%"struct.std::_Vector_base.111" = type { %"struct.std::_Vector_base<pme_grid_comm_t, std::allocator<pme_grid_comm_t>>::_Vector_impl" }
%"struct.std::_Vector_base<pme_grid_comm_t, std::allocator<pme_grid_comm_t>>::_Vector_impl" = type { %"struct.std::_Vector_base<pme_grid_comm_t, std::allocator<pme_grid_comm_t>>::_Vector_impl_data" }
%"struct.std::_Vector_base<pme_grid_comm_t, std::allocator<pme_grid_comm_t>>::_Vector_impl_data" = type { ptr, ptr, ptr }
%"class.std::unique_ptr.115" = type { %"struct.std::__uniq_ptr_data.116" }
%"struct.std::__uniq_ptr_data.116" = type { %"class.std::__uniq_ptr_impl.117" }
%"class.std::__uniq_ptr_impl.117" = type { %"class.std::tuple.118" }
%"class.std::tuple.118" = type { %"struct.std::_Tuple_impl.119" }
%"struct.std::_Tuple_impl.119" = type { %"struct.std::_Head_base.122" }
%"struct.std::_Head_base.122" = type { ptr }
%"class.std::vector.123" = type { %"struct.std::_Vector_base.124" }
%"struct.std::_Vector_base.124" = type { %"struct.std::_Vector_base<gmx::BasicVector<float>, std::allocator<gmx::BasicVector<float>>>::_Vector_impl" }
%"struct.std::_Vector_base<gmx::BasicVector<float>, std::allocator<gmx::BasicVector<float>>>::_Vector_impl" = type { %"struct.std::_Vector_base<gmx::BasicVector<float>, std::allocator<gmx::BasicVector<float>>>::_Vector_impl_data" }
%"struct.std::_Vector_base<gmx::BasicVector<float>, std::allocator<gmx::BasicVector<float>>>::_Vector_impl_data" = type { ptr, ptr, ptr }
%"class.std::vector.97" = type { %"struct.std::_Vector_base.98" }
%"struct.std::_Vector_base.98" = type { %"struct.std::_Vector_base<float, std::allocator<float>>::_Vector_impl" }
%"struct.std::_Vector_base<float, std::allocator<float>>::_Vector_impl" = type { %"struct.std::_Vector_base<float, std::allocator<float>>::_Vector_impl_data" }
%"struct.std::_Vector_base<float, std::allocator<float>>::_Vector_impl_data" = type { ptr, ptr, ptr }
%"class.std::unique_ptr.128" = type { %"struct.std::__uniq_ptr_data.129" }
%"struct.std::__uniq_ptr_data.129" = type { %"class.std::__uniq_ptr_impl.130" }
%"class.std::__uniq_ptr_impl.130" = type { %"class.std::tuple.131" }
%"class.std::tuple.131" = type { %"struct.std::_Tuple_impl.132" }
%"struct.std::_Tuple_impl.132" = type { %"struct.std::_Head_base.135" }
%"struct.std::_Head_base.135" = type { ptr }
%class.PmeAtomComm = type { i32, i32, i32, ptr, %"class.std::vector.136", i32, %"class.std::vector.92", %"class.std::vector.141", %"class.std::vector.144", i32, %"class.gmx::ArrayRef", %"class.gmx::ArrayRef.149", %"class.gmx::ArrayRef.152", %"class.std::vector.155", %"class.std::vector.107", %"class.std::vector.155", i8, i32, %"class.std::vector.158", %"class.std::vector.155", i32, %"class.std::vector.141", %"class.std::vector.164", %"class.std::vector.169" }
%"class.std::vector.136" = type { %"struct.std::_Vector_base.137" }
%"struct.std::_Vector_base.137" = type { %"struct.std::_Vector_base<SlabCommSetup, std::allocator<SlabCommSetup>>::_Vector_impl" }
%"struct.std::_Vector_base<SlabCommSetup, std::allocator<SlabCommSetup>>::_Vector_impl" = type { %"struct.std::_Vector_base<SlabCommSetup, std::allocator<SlabCommSetup>>::_Vector_impl_data" }
%"struct.std::_Vector_base<SlabCommSetup, std::allocator<SlabCommSetup>>::_Vector_impl_data" = type { ptr, ptr, ptr }
%"class.std::vector.144" = type { %"struct.std::_Vector_base.145" }
%"struct.std::_Vector_base.145" = type { %"struct.std::_Vector_base<std::vector<int>, std::allocator<std::vector<int>>>::_Vector_impl" }
%"struct.std::_Vector_base<std::vector<int>, std::allocator<std::vector<int>>>::_Vector_impl" = type { %"struct.std::_Vector_base<std::vector<int>, std::allocator<std::vector<int>>>::_Vector_impl_data" }
%"struct.std::_Vector_base<std::vector<int>, std::allocator<std::vector<int>>>::_Vector_impl_data" = type { ptr, ptr, ptr }
%"class.gmx::ArrayRef" = type { %"struct.gmx::ArrayRefIter", %"struct.gmx::ArrayRefIter" }
%"struct.gmx::ArrayRefIter" = type { ptr }
%"class.gmx::ArrayRef.149" = type { %"struct.gmx::ArrayRefIter.150", %"struct.gmx::ArrayRefIter.150" }
%"struct.gmx::ArrayRefIter.150" = type { ptr }
%"class.gmx::ArrayRef.152" = type { %"struct.gmx::ArrayRefIter.153", %"struct.gmx::ArrayRefIter.153" }
%"struct.gmx::ArrayRefIter.153" = type { ptr }
%"class.std::vector.158" = type { %"struct.std::_Vector_base.159" }
%"struct.std::_Vector_base.159" = type { %"struct.std::_Vector_base<gmx::BasicVector<int>, gmx::DefaultInitializationAllocator<gmx::BasicVector<int>>>::_Vector_impl" }
%"struct.std::_Vector_base<gmx::BasicVector<int>, gmx::DefaultInitializationAllocator<gmx::BasicVector<int>>>::_Vector_impl" = type { %"struct.std::_Vector_base<gmx::BasicVector<int>, gmx::DefaultInitializationAllocator<gmx::BasicVector<int>>>::_Vector_impl_data" }
%"struct.std::_Vector_base<gmx::BasicVector<int>, gmx::DefaultInitializationAllocator<gmx::BasicVector<int>>>::_Vector_impl_data" = type { ptr, ptr, ptr }
%"class.std::vector.155" = type { %"struct.std::_Vector_base.156" }
%"struct.std::_Vector_base.156" = type { %"struct.std::_Vector_base<gmx::BasicVector<float>, gmx::DefaultInitializationAllocator<gmx::BasicVector<float>>>::_Vector_impl" }
%"struct.std::_Vector_base<gmx::BasicVector<float>, gmx::DefaultInitializationAllocator<gmx::BasicVector<float>>>::_Vector_impl" = type { %"struct.std::_Vector_base<gmx::BasicVector<float>, gmx::DefaultInitializationAllocator<gmx::BasicVector<float>>>::_Vector_impl_data" }
%"struct.std::_Vector_base<gmx::BasicVector<float>, gmx::DefaultInitializationAllocator<gmx::BasicVector<float>>>::_Vector_impl_data" = type { ptr, ptr, ptr }
%"class.std::vector.141" = type { %"struct.std::_Vector_base.142" }
%"struct.std::_Vector_base.142" = type { %"struct.std::_Vector_base<int, gmx::DefaultInitializationAllocator<int>>::_Vector_impl" }
%"struct.std::_Vector_base<int, gmx::DefaultInitializationAllocator<int>>::_Vector_impl" = type { %"struct.std::_Vector_base<int, gmx::DefaultInitializationAllocator<int>>::_Vector_impl_data" }
%"struct.std::_Vector_base<int, gmx::DefaultInitializationAllocator<int>>::_Vector_impl_data" = type { ptr, ptr, ptr }
%"class.std::vector.164" = type { %"struct.std::_Vector_base.165" }
%"struct.std::_Vector_base.165" = type { %"struct.std::_Vector_base<AtomToThreadMap, std::allocator<AtomToThreadMap>>::_Vector_impl" }
%"struct.std::_Vector_base<AtomToThreadMap, std::allocator<AtomToThreadMap>>::_Vector_impl" = type { %"struct.std::_Vector_base<AtomToThreadMap, std::allocator<AtomToThreadMap>>::_Vector_impl_data" }
%"struct.std::_Vector_base<AtomToThreadMap, std::allocator<AtomToThreadMap>>::_Vector_impl_data" = type { ptr, ptr, ptr }
%"class.std::vector.169" = type { %"struct.std::_Vector_base.170" }
%"struct.std::_Vector_base.170" = type { %"struct.std::_Vector_base<splinedata_t, std::allocator<splinedata_t>>::_Vector_impl" }
%"struct.std::_Vector_base<splinedata_t, std::allocator<splinedata_t>>::_Vector_impl" = type { %"struct.std::_Vector_base<splinedata_t, std::allocator<splinedata_t>>::_Vector_impl_data" }
%"struct.std::_Vector_base<splinedata_t, std::allocator<splinedata_t>>::_Vector_impl_data" = type { ptr, ptr, ptr }

; Function Attrs: mustprogress nounwind uwtable
define linkonce_odr noundef ptr @_ZNK3gmx12ArrayRefIterIKfE4dataEv(ptr noundef nonnull align 8 dereferenceable(8) %0) #3 comdat align 2 {
  %2 = alloca ptr, align 8
  store ptr %0, ptr %2, align 8
  %3 = load ptr, ptr %2, align 8
  %4 = getelementptr inbounds %"struct.gmx::ArrayRefIter.150", ptr %3, i32 0, i32 0
  %5 = load ptr, ptr %4, align 8
  ret ptr %5
}

; Function Attrs: mustprogress nounwind uwtable
define linkonce_odr noundef nonnull align 8 dereferenceable(392) ptr @_ZNSt6vectorI11PmeAtomCommSaIS0_EEixEm(ptr noundef nonnull align 8 dereferenceable(24) %0, i64 noundef %1) #3 comdat align 2 {
  %3 = alloca ptr, align 8
  %4 = alloca i64, align 8
  store ptr %0, ptr %3, align 8
  store i64 %1, ptr %4, align 8
  %5 = load ptr, ptr %3, align 8
  %6 = getelementptr inbounds %"struct.std::_Vector_base.103", ptr %5, i32 0, i32 0
  %7 = getelementptr inbounds %"struct.std::_Vector_base<PmeAtomComm, std::allocator<PmeAtomComm>>::_Vector_impl_data", ptr %6, i32 0, i32 0
  %8 = load ptr, ptr %7, align 8
  %9 = load i64, ptr %4, align 8
  %10 = getelementptr inbounds %class.PmeAtomComm, ptr %8, i64 %9
  ret ptr %10
}

; Function Attrs: mustprogress nounwind uwtable
define internal void @_ZL20pme_gpu_reinit_atomsP6PmeGpuiPKfS2_(ptr noundef %0, i32 noundef %1, ptr noundef %2, ptr noundef %3) #3 {
  %5 = alloca ptr, align 8
  %6 = alloca i32, align 4
  %7 = alloca ptr, align 8
  %8 = alloca ptr, align 8
  store ptr %0, ptr %5, align 8
  store i32 %1, ptr %6, align 4
  store ptr %2, ptr %7, align 8
  store ptr %3, ptr %8, align 8
  ret void
}

; Function Attrs: mustprogress nounwind uwtable
define linkonce_odr noundef ptr @_ZNK3gmx8ArrayRefIKfE4dataEv(ptr noundef nonnull align 8 dereferenceable(16) %0) #3 comdat align 2 {
  %2 = alloca ptr, align 8
  store ptr %0, ptr %2, align 8
  %3 = load ptr, ptr %2, align 8
  %4 = getelementptr inbounds %"class.gmx::ArrayRef.149", ptr %3, i32 0, i32 0
  %5 = call noundef ptr @_ZNK3gmx12ArrayRefIterIKfE4dataEv(ptr noundef nonnull align 8 dereferenceable(8) %4) #5
  ret ptr %5
}

; Function Attrs: mustprogress uwtable
define void @_Z20gmx_pme_reinit_atomsP9gmx_pme_tiN3gmx8ArrayRefIKfEES4_(ptr noundef %0, i32 noundef %1, ptr %2, ptr %3, ptr %4, ptr %5) #0 {
  %7 = alloca %"class.gmx::ArrayRef.149", align 8
  %8 = alloca %"class.gmx::ArrayRef.149", align 8
  %9 = alloca ptr, align 8
  %10 = alloca i32, align 4
  %11 = getelementptr inbounds { ptr, ptr }, ptr %7, i32 0, i32 0
  store ptr %2, ptr %11, align 8
  %12 = getelementptr inbounds { ptr, ptr }, ptr %7, i32 0, i32 1
  store ptr %3, ptr %12, align 8
  %13 = getelementptr inbounds { ptr, ptr }, ptr %8, i32 0, i32 0
  store ptr %4, ptr %13, align 8
  %14 = getelementptr inbounds { ptr, ptr }, ptr %8, i32 0, i32 1
  store ptr %5, ptr %14, align 8
  store ptr %0, ptr %9, align 8
  store i32 %1, ptr %10, align 4
  %15 = load ptr, ptr %9, align 8
  %16 = getelementptr inbounds %struct.gmx_pme_t, ptr %15, i32 0, i32 29
  %17 = load ptr, ptr %16, align 8
  %18 = icmp ne ptr %17, null
  br i1 %18, label %19, label %34

19:                                               ; preds = %6
  %20 = load ptr, ptr %9, align 8
  %21 = getelementptr inbounds %struct.gmx_pme_t, ptr %20, i32 0, i32 29
  %22 = load ptr, ptr %21, align 8
  %23 = load i32, ptr %10, align 4
  %24 = call noundef ptr @_ZNK3gmx8ArrayRefIKfE4dataEv(ptr noundef nonnull align 8 dereferenceable(16) %7)
  %25 = load ptr, ptr %9, align 8
  %26 = getelementptr inbounds %struct.gmx_pme_t, ptr %25, i32 0, i32 16
  %27 = load i8, ptr %26, align 4
  %28 = trunc i8 %27 to i1
  br i1 %28, label %29, label %31

29:                                               ; preds = %19
  %30 = call noundef ptr @_ZNK3gmx8ArrayRefIKfE4dataEv(ptr noundef nonnull align 8 dereferenceable(16) %8)
  br label %32

31:                                               ; preds = %19
  br label %32

32:                                               ; preds = %31, %29
  %33 = phi ptr [ %30, %29 ], [ null, %31 ]
  call void @_ZL20pme_gpu_reinit_atomsP6PmeGpuiPKfS2_(ptr noundef %22, i32 noundef %23, ptr noundef %24, ptr noundef %33)
  br label %39

34:                                               ; preds = %6
  %35 = load ptr, ptr %9, align 8
  %36 = getelementptr inbounds %struct.gmx_pme_t, ptr %35, i32 0, i32 51
  %37 = call noundef nonnull align 8 dereferenceable(392) ptr @_ZNSt6vectorI11PmeAtomCommSaIS0_EEixEm(ptr noundef nonnull align 8 dereferenceable(24) %36, i64 noundef 0) #5
  %38 = load i32, ptr %10, align 4
  call void @_ZN11PmeAtomComm11setNumAtomsEi(ptr noundef nonnull align 8 dereferenceable(392) %37, i32 noundef %38)
  br label %39

39:                                               ; preds = %34, %32
  ret void
}