; Function Attrs: mustprogress uwtable
define void @_Z20gmx_pme_reinit_atomsP9gmx_pme_tiN3gmx8ArrayRefIKfEES4_(ptr nocapture noundef readonly %0, i32 noundef %1, ptr nocapture readnone %2, ptr nocapture readnone %3, ptr nocapture readnone %4, ptr nocapture readnone %5) local_unnamed_addr #0 {
  %7 = getelementptr inbounds i8, ptr %0, i64 128
  %8 = load ptr, ptr %7, align 8
  %.not = icmp eq ptr %8, null
  br i1 %.not, label %9, label %12

9:                                                ; preds = %6
  %10 = getelementptr inbounds i8, ptr %0, i64 440
  %11 = load ptr, ptr %10, align 8
  tail call void @_ZN11PmeAtomComm11setNumAtomsEi(ptr noundef nonnull align 8 dereferenceable(392) %11, i32 noundef %1)
  br label %12

12:                                               ; preds = %6, %9
  ret void
}